target datalayout = "e-m:e-p270:32:32-p271:32:32-p272:64:64-i64:64-i128:128-f80:128-n8:16:32:64-S128"
target triple = "x86_64-pc-linux-gnu"

; Function Attrs: nounwind uwtable
define internal void @find_peak(ptr noundef %0, i32 noundef %1, ptr noundef %2) #1 {
  %4 = alloca ptr, align 8
  %5 = alloca i32, align 4
  %6 = alloca ptr, align 8
  %7 = alloca float, align 4
  %8 = alloca i32, align 4
  store ptr %0, ptr %4, align 8, !tbaa !69
  store i32 %1, ptr %5, align 4, !tbaa !33
  store ptr %2, ptr %6, align 8, !tbaa !69
  call void @llvm.lifetime.start.p0(i64 4, ptr %7) #12
  store float 0.000000e+00, ptr %7, align 4, !tbaa !70
  store float 0.000000e+00, ptr %7, align 4, !tbaa !70
  call void @llvm.lifetime.start.p0(i64 4, ptr %8) #12
  store i32 0, ptr %8, align 4, !tbaa !33
  br label %9

9:                                                ; preds = %23, %3
  %10 = load i32, ptr %8, align 4, !tbaa !33
  %11 = load i32, ptr %5, align 4, !tbaa !33
  %12 = icmp slt i32 %10, %11
  br i1 %12, label %14, label %13

13:                                               ; preds = %9
  call void @llvm.lifetime.end.p0(i64 4, ptr %8) #12
  br label %26

14:                                               ; preds = %9
  %15 = load float, ptr %7, align 4, !tbaa !70
  %16 = load ptr, ptr %4, align 8, !tbaa !69
  %17 = load i32, ptr %8, align 4, !tbaa !33
  %18 = sext i32 %17 to i64
  %19 = getelementptr inbounds float, ptr %16, i64 %18
  %20 = load float, ptr %19, align 4, !tbaa !70
  %21 = call nsz float @llvm.fabs.f32(float %20)
  %22 = call nsz float @llvm.maxnum.f32(float %15, float %21)
  store float %22, ptr %7, align 4, !tbaa !70
  br label %23

23:                                               ; preds = %14
  %24 = load i32, ptr %8, align 4, !tbaa !33
  %25 = add nsw i32 %24, 1
  store i32 %25, ptr %8, align 4, !tbaa !33
  br label %9, !llvm.loop !71

26:                                               ; preds = %13
  %27 = load float, ptr %7, align 4, !tbaa !70
  %28 = load ptr, ptr %6, align 8, !tbaa !69
  store float %27, ptr %28, align 4, !tbaa !70
  call void @llvm.lifetime.end.p0(i64 4, ptr %7) #12
  ret void
}