; Function Attrs: nofree norecurse nosync nounwind memory(argmem: readwrite) uwtable
define internal void @find_peak(ptr noundef readonly captures(none) %0, i32 noundef %1, ptr noundef writeonly captures(none) %2) #5 {
  %4 = icmp sgt i32 %1, 0
  br i1 %4, label %.lr.ph.preheader, label %._crit_edge

.lr.ph.preheader:                                 ; preds = %3
  %wide.trip.count = zext nneg i32 %1 to i64
  br label %.lr.ph

._crit_edge:                                      ; preds = %.lr.ph, %3
  %.07.lcssa = phi float [ 0.000000e+00, %3 ], [ %8, %.lr.ph ]
  store float %.07.lcssa, ptr %2, align 4, !tbaa !78
  ret void

.lr.ph:                                           ; preds = %.lr.ph.preheader, %.lr.ph
  %indvars.iv = phi i64 [ 0, %.lr.ph.preheader ], [ %indvars.iv.next, %.lr.ph ]
  %.078 = phi float [ 0.000000e+00, %.lr.ph.preheader ], [ %8, %.lr.ph ]
  %5 = getelementptr inbounds nuw float, ptr %0, i64 %indvars.iv
  %6 = load float, ptr %5, align 4, !tbaa !78
  %7 = tail call nsz float @llvm.fabs.f32(float %6)
  %8 = tail call nsz float @llvm.maxnum.f32(float %.078, float %7)
  %indvars.iv.next = add nuw nsw i64 %indvars.iv, 1
  %exitcond.not = icmp eq i64 %indvars.iv.next, %wide.trip.count
  br i1 %exitcond.not, label %._crit_edge, label %.lr.ph, !llvm.loop !110
}